Certificate:
    Data:
        Version: 3 (0x2)
        Serial Number: 14433745070101514278 (0xc84ef6ab01f24826)
    Signature Algorithm: sha256WithRSAEncryption
        Issuer: C=IN, ST=HARYANA, O=CA, OU=CA, CN=CA/emailAddress=pratiksingh773@gmail.com
        Validity
            Not Before: May 16 18:35:53 2017 GMT
            Not After : May 16 18:35:53 2018 GMT
        Subject: C=IN, ST=HARYANA, L=GURGAON, O=CA, OU=CA, CN=CA/emailAddress=pratiksingh773@gmail.com
        Subject Public Key Info:
            Public Key Algorithm: rsaEncryption
                Public-Key: (2048 bit)
                Modulus:
                    00:a0:1a:0f:0e:65:90:32:b6:85:e8:af:70:4e:ef:
                    cc:cf:30:4d:e0:ad:99:fe:21:ae:0f:b5:f0:dc:3e:
                    79:a3:54:fc:8e:38:ea:f9:06:41:1e:c9:f8:88:63:
                    27:3b:e9:2c:53:17:a6:a3:af:ec:bc:5d:05:98:7a:
                    39:97:d3:7b:aa:c3:0d:44:fb:a4:75:cb:ec:4c:dd:
                    be:a9:bf:ea:eb:cd:7f:a3:9c:25:39:a8:d6:82:59:
                    42:15:fd:83:36:70:d7:8c:3d:20:98:2a:d7:4e:fd:
                    2d:33:81:13:4c:b4:1f:9d:25:44:4c:c7:4e:c5:55:
                    6f:5f:4c:df:3a:45:7e:02:79:ef:3c:dd:ee:05:f8:
                    e9:df:d3:a8:89:8d:e5:a0:6b:0c:04:a9:01:e1:77:
                    14:10:ec:71:66:db:8d:7e:21:a1:c0:c0:86:6d:42:
                    50:be:f8:ea:8b:5d:81:80:f2:10:a1:1d:5b:11:95:
                    d4:56:0d:f0:07:79:4f:43:67:df:11:ee:56:56:79:
                    54:03:e6:2c:af:bb:19:61:79:15:d7:8a:25:9b:ac:
                    d0:d8:5f:1c:69:35:08:65:69:b4:0c:6c:76:fe:2d:
                    57:fa:60:7f:44:2c:5c:06:7d:3f:92:b9:ad:63:e5:
                    73:ac:35:49:ba:48:18:a4:1d:b2:e7:09:d9:43:6b:
                    3a:8b
                Exponent: 65537 (0x10001)
        X509v3 extensions:
            X509v3 Basic Constraints: 
                CA:FALSE
            Netscape Comment: 
                OpenSSL Generated Certificate
            X509v3 Subject Key Identifier: 
                A4:E7:0F:E7:FE:C5:73:48:3C:A2:AB:FA:7B:68:44:A3:F2:96:38:78
            X509v3 Authority Key Identifier: 
                keyid:56:E0:7A:59:F4:F5:F3:A8:2D:8E:2E:F0:99:EF:2E:94:A4:1A:56:4C

    Signature Algorithm: sha256WithRSAEncryption
         a8:d3:38:a1:29:86:42:38:83:4d:69:49:6f:4f:53:4e:a3:c3:
         1c:83:83:2e:9e:18:49:00:57:ee:cf:41:d2:cc:4d:c3:b3:63:
         66:31:09:c7:f9:da:83:4a:59:25:7a:06:62:75:d2:99:ea:9d:
         6f:8e:e2:97:2e:cd:70:3a:ec:ff:71:0c:6d:15:00:0d:6f:c2:
         4a:f1:59:2d:86:86:f1:25:97:2c:6e:b3:28:ad:38:1c:d5:17:
         67:b8:5c:e8:88:66:33:4c:a3:7b:76:d3:ee:ac:a1:bd:26:97:
         cb:d0:b0:6c:20:29:a3:97:36:e1:fc:26:73:71:85:15:0c:9f:
         23:78:3d:8b:90:34:87:fe:12:01:54:34:0f:98:e3:7d:f3:81:
         5c:55:b5:2e:23:80:ae:6c:68:45:de:fa:ca:72:a9:39:23:20:
         4e:73:3e:7a:86:ce:c0:10:64:94:d6:20:de:8e:97:d4:76:c3:
         4c:14:06:ef:da:35:71:6c:aa:95:5c:55:13:05:31:f0:7f:6e:
         e8:18:9e:79:a4:53:97:1e:5a:19:34:b7:99:c6:22:fe:bc:49:
         8f:8c:50:dc:71:43:01:92:92:6a:70:44:9d:4d:a6:ef:31:8d:
         1d:24:0c:b9:03:43:26:89:02:e3:9b:e1:c6:04:2e:13:d5:7c:
         13:6f:16:cb
-----BEGIN CERTIFICATE-----
MIID7zCCAtegAwIBAgIJAMhO9qsB8kgmMA0GCSqGSIb3DQEBCwUAMG8xCzAJBgNV
BAYTAklOMRAwDgYDVQQIDAdIQVJZQU5BMQswCQYDVQQKDAJDQTELMAkGA1UECwwC
Q0ExCzAJBgNVBAMMAkNBMScwJQYJKoZIhvcNAQkBFhhwcmF0aWtzaW5naDc3M0Bn
bWFpbC5jb20wHhcNMTcwNTE2MTgzNTUzWhcNMTgwNTE2MTgzNTUzWjCBgTELMAkG
A1UEBhMCSU4xEDAOBgNVBAgMB0hBUllBTkExEDAOBgNVBAcMB0dVUkdBT04xCzAJ
BgNVBAoMAkNBMQswCQYDVQQLDAJDQTELMAkGA1UEAwwCQ0ExJzAlBgkqhkiG9w0B
CQEWGHByYXRpa3NpbmdoNzczQGdtYWlsLmNvbTCCASIwDQYJKoZIhvcNAQEBBQAD
ggEPADCCAQoCggEBAKAaDw5lkDK2heivcE7vzM8wTeCtmf4hrg+18Nw+eaNU/I44
6vkGQR7J+IhjJzvpLFMXpqOv7LxdBZh6OZfTe6rDDUT7pHXL7Ezdvqm/6uvNf6Oc
JTmo1oJZQhX9gzZw14w9IJgq1079LTOBE0y0H50lREzHTsVVb19M3zpFfgJ57zzd
7gX46d/TqImN5aBrDASpAeF3FBDscWbbjX4hocDAhm1CUL746otdgYDyEKEdWxGV
1FYN8Ad5T0Nn3xHuVlZ5VAPmLK+7GWF5FdeKJZus0NhfHGk1CGVptAxsdv4tV/pg
f0QsXAZ9P5K5rWPlc6w1SbpIGKQdsucJ2UNrOosCAwEAAaN7MHkwCQYDVR0TBAIw
ADAsBglghkgBhvhCAQ0EHxYdT3BlblNTTCBHZW5lcmF0ZWQgQ2VydGlmaWNhdGUw
HQYDVR0OBBYEFKTnD+f+xXNIPKKr+ntoRKPyljh4MB8GA1UdIwQYMBaAFFbgeln0
9fOoLY4u8JnvLpSkGlZMMA0GCSqGSIb3DQEBCwUAA4IBAQCo0zihKYZCOINNaUlv
T1NOo8Mcg4MunhhJAFfuz0HSzE3Ds2NmMQnH+dqDSlklegZiddKZ6p1vjuKXLs1w
Ouz/cQxtFQANb8JK8VkthobxJZcsbrMorTgc1RdnuFzoiGYzTKN7dtPurKG9JpfL
0LBsICmjlzbh/CZzcYUVDJ8jeD2LkDSH/hIBVDQPmON984FcVbUuI4CubGhF3vrK
cqk5IyBOcz56hs7AEGSU1iDejpfUdsNMFAbv2jVxbKqVXFUTBTHwf27oGJ55pFOX
HloZNLeZxiL+vEmPjFDccUMBkpJqcESdTabvMY0dJAy5A0MmiQLjm+HGBC4T1XwT
bxbL
-----END CERTIFICATE-----
